target datalayout = "e-m:e-p270:32:32-p271:32:32-p272:64:64-i64:64-f80:128-n8:16:32:64-S128"
target triple = "x86_64-pc-linux-gnu"

%struct.stu = type { float, float, float, float, %struct.stu* }

@.str = private unnamed_addr constant [9 x i8] c"%f %f %f\00", align 1
@.str.1 = private unnamed_addr constant [3 x i8] c"%d\00", align 1
@.str.2 = private unnamed_addr constant [7 x i8] c"%g %g\0A\00", align 1

; Function Attrs: noinline nounwind uwtable
define dso_local %struct.stu* @creat(i32 %0) #0 {
  %2 = alloca i32, align 4
  %3 = alloca i32, align 4
  %4 = alloca %struct.stu*, align 8
  %5 = alloca %struct.stu*, align 8
  %6 = alloca %struct.stu*, align 8
  store i32 %0, i32* %2, align 4
  store i32 0, i32* %3, align 4
  br label %7

7:                                                ; preds = %40, %1
  %8 = load i32, i32* %3, align 4
  %9 = load i32, i32* %2, align 4
  %10 = icmp slt i32 %8, %9
  br i1 %10, label %11, label %43

11:                                               ; preds = %7
  %12 = call noalias i8* @malloc(i64 24) #3
  %13 = bitcast i8* %12 to %struct.stu*
  store %struct.stu* %13, %struct.stu** %5, align 8
  %14 = load %struct.stu*, %struct.stu** %5, align 8
  %15 = getelementptr inbounds %struct.stu, %struct.stu* %14, i32 0, i32 0
  %16 = load %struct.stu*, %struct.stu** %5, align 8
  %17 = getelementptr inbounds %struct.stu, %struct.stu* %16, i32 0, i32 1
  %18 = load %struct.stu*, %struct.stu** %5, align 8
  %19 = getelementptr inbounds %struct.stu, %struct.stu* %18, i32 0, i32 2
  %20 = call i32 (i8*, ...) @__isoc99_scanf(i8* getelementptr inbounds ([9 x i8], [9 x i8]* @.str, i64 0, i64 0), float* %15, float* %17, float* %19)
  %21 = load %struct.stu*, %struct.stu** %5, align 8
  %22 = getelementptr inbounds %struct.stu, %struct.stu* %21, i32 0, i32 1
  %23 = load float, float* %22, align 4
  %24 = load %struct.stu*, %struct.stu** %5, align 8
  %25 = getelementptr inbounds %struct.stu, %struct.stu* %24, i32 0, i32 2
  %26 = load float, float* %25, align 8
  %27 = fadd float %23, %26
  %28 = load %struct.stu*, %struct.stu** %5, align 8
  %29 = getelementptr inbounds %struct.stu, %struct.stu* %28, i32 0, i32 3
  store float %27, float* %29, align 4
  %30 = load i32, i32* %3, align 4
  %31 = icmp eq i32 %30, 0
  br i1 %31, label %32, label %34

32:                                               ; preds = %11
  %33 = load %struct.stu*, %struct.stu** %5, align 8
  store %struct.stu* %33, %struct.stu** %6, align 8
  store %struct.stu* %33, %struct.stu** %4, align 8
  br label %39

34:                                               ; preds = %11
  %35 = load %struct.stu*, %struct.stu** %5, align 8
  %36 = load %struct.stu*, %struct.stu** %6, align 8
  %37 = getelementptr inbounds %struct.stu, %struct.stu* %36, i32 0, i32 4
  store %struct.stu* %35, %struct.stu** %37, align 8
  %38 = load %struct.stu*, %struct.stu** %5, align 8
  store %struct.stu* %38, %struct.stu** %6, align 8
  br label %39

39:                                               ; preds = %34, %32
  br label %40

40:                                               ; preds = %39
  %41 = load i32, i32* %3, align 4
  %42 = add nsw i32 %41, 1
  store i32 %42, i32* %3, align 4
  br label %7

43:                                               ; preds = %7
  %44 = load %struct.stu*, %struct.stu** %6, align 8
  %45 = getelementptr inbounds %struct.stu, %struct.stu* %44, i32 0, i32 4
  store %struct.stu* null, %struct.stu** %45, align 8
  %46 = load %struct.stu*, %struct.stu** %4, align 8
  ret %struct.stu* %46
}

; Function Attrs: noinline nounwind uwtable
define dso_local void @main() #0 {
  %1 = alloca i32, align 4
  %2 = alloca i32, align 4
  %3 = alloca i32, align 4
  %4 = alloca float, align 4
  %5 = alloca %struct.stu*, align 8
  %6 = alloca %struct.stu*, align 8
  %7 = alloca %struct.stu*, align 8
  %8 = call i32 (i8*, ...) @__isoc99_scanf(i8* getelementptr inbounds ([3 x i8], [3 x i8]* @.str.1, i64 0, i64 0), i32* %1)
  %9 = load i32, i32* %1, align 4
  %10 = call %struct.stu* @creat(i32 %9)
  store %struct.stu* %10, %struct.stu** %5, align 8
  store i32 0, i32* %2, align 4
  br label %11

11:                                               ; preds = %55, %0
  %12 = load i32, i32* %2, align 4
  %13 = icmp slt i32 %12, 3
  br i1 %13, label %14, label %58

14:                                               ; preds = %11
  %15 = load %struct.stu*, %struct.stu** %5, align 8
  store %struct.stu* %15, %struct.stu** %7, align 8
  %16 = load %struct.stu*, %struct.stu** %5, align 8
  store %struct.stu* %16, %struct.stu** %6, align 8
  %17 = load %struct.stu*, %struct.stu** %5, align 8
  %18 = getelementptr inbounds %struct.stu, %struct.stu* %17, i32 0, i32 3
  %19 = load float, float* %18, align 4
  store float %19, float* %4, align 4
  store i32 0, i32* %3, align 4
  br label %20

20:                                               ; preds = %40, %14
  %21 = load i32, i32* %3, align 4
  %22 = load i32, i32* %1, align 4
  %23 = sub nsw i32 %22, 1
  %24 = icmp slt i32 %21, %23
  br i1 %24, label %25, label %43

25:                                               ; preds = %20
  %26 = load %struct.stu*, %struct.stu** %7, align 8
  %27 = getelementptr inbounds %struct.stu, %struct.stu* %26, i32 0, i32 4
  %28 = load %struct.stu*, %struct.stu** %27, align 8
  store %struct.stu* %28, %struct.stu** %7, align 8
  %29 = load %struct.stu*, %struct.stu** %7, align 8
  %30 = getelementptr inbounds %struct.stu, %struct.stu* %29, i32 0, i32 3
  %31 = load float, float* %30, align 4
  %32 = load float, float* %4, align 4
  %33 = fcmp ogt float %31, %32
  br i1 %33, label %34, label %39

34:                                               ; preds = %25
  %35 = load %struct.stu*, %struct.stu** %7, align 8
  %36 = getelementptr inbounds %struct.stu, %struct.stu* %35, i32 0, i32 3
  %37 = load float, float* %36, align 4
  store float %37, float* %4, align 4
  %38 = load %struct.stu*, %struct.stu** %7, align 8
  store %struct.stu* %38, %struct.stu** %6, align 8
  br label %39

39:                                               ; preds = %34, %25
  br label %40

40:                                               ; preds = %39
  %41 = load i32, i32* %3, align 4
  %42 = add nsw i32 %41, 1
  store i32 %42, i32* %3, align 4
  br label %20

43:                                               ; preds = %20
  %44 = load %struct.stu*, %struct.stu** %6, align 8
  %45 = getelementptr inbounds %struct.stu, %struct.stu* %44, i32 0, i32 0
  %46 = load float, float* %45, align 8
  %47 = fpext float %46 to double
  %48 = load %struct.stu*, %struct.stu** %6, align 8
  %49 = getelementptr inbounds %struct.stu, %struct.stu* %48, i32 0, i32 3
  %50 = load float, float* %49, align 4
  %51 = fpext float %50 to double
  %52 = call i32 (i8*, ...) @printf(i8* getelementptr inbounds ([7 x i8], [7 x i8]* @.str.2, i64 0, i64 0), double %47, double %51)
  %53 = load %struct.stu*, %struct.stu** %6, align 8
  %54 = getelementptr inbounds %struct.stu, %struct.stu* %53, i32 0, i32 3
  store float 0.000000e+00, float* %54, align 4
  br label %55

55:                                               ; preds = %43
  %56 = load i32, i32* %2, align 4
  %57 = add nsw i32 %56, 1
  store i32 %57, i32* %2, align 4
  br label %11

58:                                               ; preds = %11
  ret void
}